
project.elf:     file format elf32-avr

Sections:
Idx Name          Size      VMA       LMA       File off  Algn
  0 .text         000003be  00000000  00000000  00000054  2**1
                  CONTENTS, ALLOC, LOAD, READONLY, CODE
  1 .data         00000000  00800060  00800060  00000412  2**0
                  CONTENTS, ALLOC, LOAD, DATA
  2 .comment      00000030  00000000  00000000  00000412  2**0
                  CONTENTS, READONLY
  3 .note.gnu.avr.deviceinfo 0000003c  00000000  00000000  00000444  2**2
                  CONTENTS, READONLY
  4 .debug_info   000004e6  00000000  00000000  00000480  2**0
                  CONTENTS, READONLY, DEBUGGING
  5 .debug_abbrev 000004a3  00000000  00000000  00000966  2**0
                  CONTENTS, READONLY, DEBUGGING
  6 .debug_line   00000116  00000000  00000000  00000e09  2**0
                  CONTENTS, READONLY, DEBUGGING
  7 .debug_str    00000196  00000000  00000000  00000f1f  2**0
                  CONTENTS, READONLY, DEBUGGING

Disassembly of section .text:

00000000 <__vectors>:
   0:	0c 94 2a 00 	jmp	0x54	; 0x54 <__ctors_end>
   4:	0c 94 3f 00 	jmp	0x7e	; 0x7e <__bad_interrupt>
   8:	0c 94 3f 00 	jmp	0x7e	; 0x7e <__bad_interrupt>
   c:	0c 94 3f 00 	jmp	0x7e	; 0x7e <__bad_interrupt>
  10:	0c 94 3f 00 	jmp	0x7e	; 0x7e <__bad_interrupt>
  14:	0c 94 3f 00 	jmp	0x7e	; 0x7e <__bad_interrupt>
  18:	0c 94 3f 00 	jmp	0x7e	; 0x7e <__bad_interrupt>
  1c:	0c 94 3f 00 	jmp	0x7e	; 0x7e <__bad_interrupt>
  20:	0c 94 3f 00 	jmp	0x7e	; 0x7e <__bad_interrupt>
  24:	0c 94 3f 00 	jmp	0x7e	; 0x7e <__bad_interrupt>
  28:	0c 94 3f 00 	jmp	0x7e	; 0x7e <__bad_interrupt>
  2c:	0c 94 3f 00 	jmp	0x7e	; 0x7e <__bad_interrupt>
  30:	0c 94 3f 00 	jmp	0x7e	; 0x7e <__bad_interrupt>
  34:	0c 94 3f 00 	jmp	0x7e	; 0x7e <__bad_interrupt>
  38:	0c 94 3f 00 	jmp	0x7e	; 0x7e <__bad_interrupt>
  3c:	0c 94 3f 00 	jmp	0x7e	; 0x7e <__bad_interrupt>
  40:	0c 94 3f 00 	jmp	0x7e	; 0x7e <__bad_interrupt>
  44:	0c 94 3f 00 	jmp	0x7e	; 0x7e <__bad_interrupt>
  48:	0c 94 3f 00 	jmp	0x7e	; 0x7e <__bad_interrupt>
  4c:	0c 94 3f 00 	jmp	0x7e	; 0x7e <__bad_interrupt>
  50:	0c 94 3f 00 	jmp	0x7e	; 0x7e <__bad_interrupt>

00000054 <__ctors_end>:
  54:	11 24       	eor	r1, r1
  56:	1f be       	out	0x3f, r1	; 63
  58:	cf e5       	ldi	r28, 0x5F	; 95
  5a:	d8 e0       	ldi	r29, 0x08	; 8
  5c:	de bf       	out	0x3e, r29	; 62
  5e:	cd bf       	out	0x3d, r28	; 61

00000060 <__do_copy_data>:
  60:	10 e0       	ldi	r17, 0x00	; 0
  62:	a0 e6       	ldi	r26, 0x60	; 96
  64:	b0 e0       	ldi	r27, 0x00	; 0
  66:	ee eb       	ldi	r30, 0xBE	; 190
  68:	f3 e0       	ldi	r31, 0x03	; 3
  6a:	02 c0       	rjmp	.+4      	; 0x70 <__do_copy_data+0x10>
  6c:	05 90       	lpm	r0, Z+
  6e:	0d 92       	st	X+, r0
  70:	a0 36       	cpi	r26, 0x60	; 96
  72:	b1 07       	cpc	r27, r17
  74:	d9 f7       	brne	.-10     	; 0x6c <__do_copy_data+0xc>
  76:	0e 94 fd 00 	call	0x1fa	; 0x1fa <main>
  7a:	0c 94 dd 01 	jmp	0x3ba	; 0x3ba <_exit>

0000007e <__bad_interrupt>:
  7e:	0c 94 00 00 	jmp	0	; 0x0 <__vectors>

00000082 <BCD_SEG_vidinit>:
  82:	81 30       	cpi	r24, 0x01	; 1
  84:	e9 f0       	breq	.+58     	; 0xc0 <BCD_SEG_vidinit+0x3e>
  86:	a8 f0       	brcs	.+42     	; 0xb2 <BCD_SEG_vidinit+0x30>
  88:	82 30       	cpi	r24, 0x02	; 2
  8a:	31 f1       	breq	.+76     	; 0xd8 <BCD_SEG_vidinit+0x56>
  8c:	83 30       	cpi	r24, 0x03	; 3
  8e:	c1 f5       	brne	.+112    	; 0x100 <BCD_SEG_vidinit+0x7e>
  90:	40 e0       	ldi	r20, 0x00	; 0
  92:	63 e0       	ldi	r22, 0x03	; 3
  94:	81 e0       	ldi	r24, 0x01	; 1
  96:	0e 94 ff 00 	call	0x1fe	; 0x1fe <DIO_vidset_Pin_Direction>
  9a:	40 e0       	ldi	r20, 0x00	; 0
  9c:	62 e0       	ldi	r22, 0x02	; 2
  9e:	81 e0       	ldi	r24, 0x01	; 1
  a0:	0e 94 ff 00 	call	0x1fe	; 0x1fe <DIO_vidset_Pin_Direction>
  a4:	40 e0       	ldi	r20, 0x00	; 0
  a6:	65 e0       	ldi	r22, 0x05	; 5
  a8:	82 e0       	ldi	r24, 0x02	; 2
  aa:	0e 94 ff 00 	call	0x1fe	; 0x1fe <DIO_vidset_Pin_Direction>
  ae:	41 e0       	ldi	r20, 0x01	; 1
  b0:	23 c0       	rjmp	.+70     	; 0xf8 <BCD_SEG_vidinit+0x76>
  b2:	41 e0       	ldi	r20, 0x01	; 1
  b4:	63 e0       	ldi	r22, 0x03	; 3
  b6:	81 e0       	ldi	r24, 0x01	; 1
  b8:	0e 94 ff 00 	call	0x1fe	; 0x1fe <DIO_vidset_Pin_Direction>
  bc:	40 e0       	ldi	r20, 0x00	; 0
  be:	06 c0       	rjmp	.+12     	; 0xcc <BCD_SEG_vidinit+0x4a>
  c0:	40 e0       	ldi	r20, 0x00	; 0
  c2:	63 e0       	ldi	r22, 0x03	; 3
  c4:	81 e0       	ldi	r24, 0x01	; 1
  c6:	0e 94 ff 00 	call	0x1fe	; 0x1fe <DIO_vidset_Pin_Direction>
  ca:	41 e0       	ldi	r20, 0x01	; 1
  cc:	62 e0       	ldi	r22, 0x02	; 2
  ce:	81 e0       	ldi	r24, 0x01	; 1
  d0:	0e 94 ff 00 	call	0x1fe	; 0x1fe <DIO_vidset_Pin_Direction>
  d4:	40 e0       	ldi	r20, 0x00	; 0
  d6:	0b c0       	rjmp	.+22     	; 0xee <BCD_SEG_vidinit+0x6c>
  d8:	40 e0       	ldi	r20, 0x00	; 0
  da:	63 e0       	ldi	r22, 0x03	; 3
  dc:	81 e0       	ldi	r24, 0x01	; 1
  de:	0e 94 ff 00 	call	0x1fe	; 0x1fe <DIO_vidset_Pin_Direction>
  e2:	40 e0       	ldi	r20, 0x00	; 0
  e4:	62 e0       	ldi	r22, 0x02	; 2
  e6:	81 e0       	ldi	r24, 0x01	; 1
  e8:	0e 94 ff 00 	call	0x1fe	; 0x1fe <DIO_vidset_Pin_Direction>
  ec:	41 e0       	ldi	r20, 0x01	; 1
  ee:	65 e0       	ldi	r22, 0x05	; 5
  f0:	82 e0       	ldi	r24, 0x02	; 2
  f2:	0e 94 ff 00 	call	0x1fe	; 0x1fe <DIO_vidset_Pin_Direction>
  f6:	40 e0       	ldi	r20, 0x00	; 0
  f8:	66 e0       	ldi	r22, 0x06	; 6
  fa:	82 e0       	ldi	r24, 0x02	; 2
  fc:	0e 94 ff 00 	call	0x1fe	; 0x1fe <DIO_vidset_Pin_Direction>
 100:	41 e0       	ldi	r20, 0x01	; 1
 102:	60 e0       	ldi	r22, 0x00	; 0
 104:	82 e0       	ldi	r24, 0x02	; 2
 106:	0e 94 ff 00 	call	0x1fe	; 0x1fe <DIO_vidset_Pin_Direction>
 10a:	41 e0       	ldi	r20, 0x01	; 1
 10c:	61 e0       	ldi	r22, 0x01	; 1
 10e:	82 e0       	ldi	r24, 0x02	; 2
 110:	0e 94 ff 00 	call	0x1fe	; 0x1fe <DIO_vidset_Pin_Direction>
 114:	41 e0       	ldi	r20, 0x01	; 1
 116:	62 e0       	ldi	r22, 0x02	; 2
 118:	82 e0       	ldi	r24, 0x02	; 2
 11a:	0e 94 ff 00 	call	0x1fe	; 0x1fe <DIO_vidset_Pin_Direction>
 11e:	41 e0       	ldi	r20, 0x01	; 1
 120:	64 e0       	ldi	r22, 0x04	; 4
 122:	82 e0       	ldi	r24, 0x02	; 2
 124:	0c 94 ff 00 	jmp	0x1fe	; 0x1fe <DIO_vidset_Pin_Direction>

00000128 <BCD_SEG_vidWriteNumber>:
 128:	cf 93       	push	r28
 12a:	c8 2f       	mov	r28, r24
 12c:	48 2f       	mov	r20, r24
 12e:	41 70       	andi	r20, 0x01	; 1
 130:	60 e0       	ldi	r22, 0x00	; 0
 132:	82 e0       	ldi	r24, 0x02	; 2
 134:	0e 94 6e 01 	call	0x2dc	; 0x2dc <DIO_vidset_Pin_Value>
 138:	c1 fb       	bst	r28, 1
 13a:	44 27       	eor	r20, r20
 13c:	40 f9       	bld	r20, 0
 13e:	61 e0       	ldi	r22, 0x01	; 1
 140:	82 e0       	ldi	r24, 0x02	; 2
 142:	0e 94 6e 01 	call	0x2dc	; 0x2dc <DIO_vidset_Pin_Value>
 146:	c2 fb       	bst	r28, 2
 148:	44 27       	eor	r20, r20
 14a:	40 f9       	bld	r20, 0
 14c:	62 e0       	ldi	r22, 0x02	; 2
 14e:	82 e0       	ldi	r24, 0x02	; 2
 150:	0e 94 6e 01 	call	0x2dc	; 0x2dc <DIO_vidset_Pin_Value>
 154:	c3 fb       	bst	r28, 3
 156:	44 27       	eor	r20, r20
 158:	40 f9       	bld	r20, 0
 15a:	64 e0       	ldi	r22, 0x04	; 4
 15c:	82 e0       	ldi	r24, 0x02	; 2
 15e:	cf 91       	pop	r28
 160:	0c 94 6e 01 	jmp	0x2dc	; 0x2dc <DIO_vidset_Pin_Value>

00000164 <LED_init>:
 164:	41 e0       	ldi	r20, 0x01	; 1
 166:	0c 94 ff 00 	jmp	0x1fe	; 0x1fe <DIO_vidset_Pin_Direction>

0000016a <SEG_TEST_BIN_AND_DIS>:
 16a:	64 e0       	ldi	r22, 0x04	; 4
 16c:	81 e0       	ldi	r24, 0x01	; 1
 16e:	0e 94 b2 00 	call	0x164	; 0x164 <LED_init>
 172:	66 e0       	ldi	r22, 0x06	; 6
 174:	81 e0       	ldi	r24, 0x01	; 1
 176:	0e 94 b2 00 	call	0x164	; 0x164 <LED_init>
 17a:	67 e0       	ldi	r22, 0x07	; 7
 17c:	82 e0       	ldi	r24, 0x02	; 2
 17e:	0e 94 b2 00 	call	0x164	; 0x164 <LED_init>
 182:	65 e0       	ldi	r22, 0x05	; 5
 184:	81 e0       	ldi	r24, 0x01	; 1
 186:	0e 94 b2 00 	call	0x164	; 0x164 <LED_init>
 18a:	c0 e0       	ldi	r28, 0x00	; 0
 18c:	d0 e0       	ldi	r29, 0x00	; 0
 18e:	80 e0       	ldi	r24, 0x00	; 0
 190:	0e 94 41 00 	call	0x82	; 0x82 <BCD_SEG_vidinit>
 194:	8c 2f       	mov	r24, r28
 196:	0e 94 94 00 	call	0x128	; 0x128 <BCD_SEG_vidWriteNumber>
 19a:	ae 01       	movw	r20, r28
 19c:	83 e0       	ldi	r24, 0x03	; 3
 19e:	55 95       	asr	r21
 1a0:	47 95       	ror	r20
 1a2:	8a 95       	dec	r24
 1a4:	e1 f7       	brne	.-8      	; 0x19e <SEG_TEST_BIN_AND_DIS+0x34>
 1a6:	66 e0       	ldi	r22, 0x06	; 6
 1a8:	81 e0       	ldi	r24, 0x01	; 1
 1aa:	0e 94 6e 01 	call	0x2dc	; 0x2dc <DIO_vidset_Pin_Value>
 1ae:	ae 01       	movw	r20, r28
 1b0:	55 95       	asr	r21
 1b2:	47 95       	ror	r20
 1b4:	55 95       	asr	r21
 1b6:	47 95       	ror	r20
 1b8:	41 70       	andi	r20, 0x01	; 1
 1ba:	65 e0       	ldi	r22, 0x05	; 5
 1bc:	81 e0       	ldi	r24, 0x01	; 1
 1be:	0e 94 6e 01 	call	0x2dc	; 0x2dc <DIO_vidset_Pin_Value>
 1c2:	ae 01       	movw	r20, r28
 1c4:	55 95       	asr	r21
 1c6:	47 95       	ror	r20
 1c8:	41 70       	andi	r20, 0x01	; 1
 1ca:	64 e0       	ldi	r22, 0x04	; 4
 1cc:	81 e0       	ldi	r24, 0x01	; 1
 1ce:	0e 94 6e 01 	call	0x2dc	; 0x2dc <DIO_vidset_Pin_Value>
 1d2:	4c 2f       	mov	r20, r28
 1d4:	41 70       	andi	r20, 0x01	; 1
 1d6:	67 e0       	ldi	r22, 0x07	; 7
 1d8:	82 e0       	ldi	r24, 0x02	; 2
 1da:	0e 94 6e 01 	call	0x2dc	; 0x2dc <DIO_vidset_Pin_Value>
 1de:	2f e7       	ldi	r18, 0x7F	; 127
 1e0:	8f e4       	ldi	r24, 0x4F	; 79
 1e2:	92 e1       	ldi	r25, 0x12	; 18
 1e4:	21 50       	subi	r18, 0x01	; 1
 1e6:	80 40       	sbci	r24, 0x00	; 0
 1e8:	90 40       	sbci	r25, 0x00	; 0
 1ea:	e1 f7       	brne	.-8      	; 0x1e4 <SEG_TEST_BIN_AND_DIS+0x7a>
 1ec:	00 c0       	rjmp	.+0      	; 0x1ee <SEG_TEST_BIN_AND_DIS+0x84>
 1ee:	00 00       	nop
 1f0:	21 96       	adiw	r28, 0x01	; 1
 1f2:	ca 30       	cpi	r28, 0x0A	; 10
 1f4:	d1 05       	cpc	r29, r1
 1f6:	59 f6       	brne	.-106    	; 0x18e <SEG_TEST_BIN_AND_DIS+0x24>
 1f8:	b8 cf       	rjmp	.-144    	; 0x16a <SEG_TEST_BIN_AND_DIS>

000001fa <main>:
 1fa:	0e 94 b5 00 	call	0x16a	; 0x16a <SEG_TEST_BIN_AND_DIS>

000001fe <DIO_vidset_Pin_Direction>:
 1fe:	41 30       	cpi	r20, 0x01	; 1
 200:	91 f5       	brne	.+100    	; 0x266 <DIO_vidset_Pin_Direction+0x68>
 202:	68 30       	cpi	r22, 0x08	; 8
 204:	08 f0       	brcs	.+2      	; 0x208 <DIO_vidset_Pin_Direction+0xa>
 206:	69 c0       	rjmp	.+210    	; 0x2da <DIO_vidset_Pin_Direction+0xdc>
 208:	82 30       	cpi	r24, 0x02	; 2
 20a:	91 f0       	breq	.+36     	; 0x230 <DIO_vidset_Pin_Direction+0x32>
 20c:	18 f4       	brcc	.+6      	; 0x214 <DIO_vidset_Pin_Direction+0x16>
 20e:	81 30       	cpi	r24, 0x01	; 1
 210:	31 f0       	breq	.+12     	; 0x21e <DIO_vidset_Pin_Direction+0x20>
 212:	08 95       	ret
 214:	83 30       	cpi	r24, 0x03	; 3
 216:	a9 f0       	breq	.+42     	; 0x242 <DIO_vidset_Pin_Direction+0x44>
 218:	84 30       	cpi	r24, 0x04	; 4
 21a:	e1 f0       	breq	.+56     	; 0x254 <DIO_vidset_Pin_Direction+0x56>
 21c:	08 95       	ret
 21e:	2a b3       	in	r18, 0x1a	; 26
 220:	81 e0       	ldi	r24, 0x01	; 1
 222:	90 e0       	ldi	r25, 0x00	; 0
 224:	01 c0       	rjmp	.+2      	; 0x228 <DIO_vidset_Pin_Direction+0x2a>
 226:	88 0f       	add	r24, r24
 228:	6a 95       	dec	r22
 22a:	ea f7       	brpl	.-6      	; 0x226 <DIO_vidset_Pin_Direction+0x28>
 22c:	82 2b       	or	r24, r18
 22e:	33 c0       	rjmp	.+102    	; 0x296 <DIO_vidset_Pin_Direction+0x98>
 230:	27 b3       	in	r18, 0x17	; 23
 232:	81 e0       	ldi	r24, 0x01	; 1
 234:	90 e0       	ldi	r25, 0x00	; 0
 236:	01 c0       	rjmp	.+2      	; 0x23a <DIO_vidset_Pin_Direction+0x3c>
 238:	88 0f       	add	r24, r24
 23a:	6a 95       	dec	r22
 23c:	ea f7       	brpl	.-6      	; 0x238 <DIO_vidset_Pin_Direction+0x3a>
 23e:	82 2b       	or	r24, r18
 240:	35 c0       	rjmp	.+106    	; 0x2ac <DIO_vidset_Pin_Direction+0xae>
 242:	24 b3       	in	r18, 0x14	; 20
 244:	81 e0       	ldi	r24, 0x01	; 1
 246:	90 e0       	ldi	r25, 0x00	; 0
 248:	01 c0       	rjmp	.+2      	; 0x24c <DIO_vidset_Pin_Direction+0x4e>
 24a:	88 0f       	add	r24, r24
 24c:	6a 95       	dec	r22
 24e:	ea f7       	brpl	.-6      	; 0x24a <DIO_vidset_Pin_Direction+0x4c>
 250:	82 2b       	or	r24, r18
 252:	37 c0       	rjmp	.+110    	; 0x2c2 <DIO_vidset_Pin_Direction+0xc4>
 254:	21 b3       	in	r18, 0x11	; 17
 256:	81 e0       	ldi	r24, 0x01	; 1
 258:	90 e0       	ldi	r25, 0x00	; 0
 25a:	01 c0       	rjmp	.+2      	; 0x25e <DIO_vidset_Pin_Direction+0x60>
 25c:	88 0f       	add	r24, r24
 25e:	6a 95       	dec	r22
 260:	ea f7       	brpl	.-6      	; 0x25c <DIO_vidset_Pin_Direction+0x5e>
 262:	82 2b       	or	r24, r18
 264:	39 c0       	rjmp	.+114    	; 0x2d8 <DIO_vidset_Pin_Direction+0xda>
 266:	41 11       	cpse	r20, r1
 268:	38 c0       	rjmp	.+112    	; 0x2da <DIO_vidset_Pin_Direction+0xdc>
 26a:	68 30       	cpi	r22, 0x08	; 8
 26c:	b0 f5       	brcc	.+108    	; 0x2da <DIO_vidset_Pin_Direction+0xdc>
 26e:	82 30       	cpi	r24, 0x02	; 2
 270:	a1 f0       	breq	.+40     	; 0x29a <DIO_vidset_Pin_Direction+0x9c>
 272:	18 f4       	brcc	.+6      	; 0x27a <DIO_vidset_Pin_Direction+0x7c>
 274:	81 30       	cpi	r24, 0x01	; 1
 276:	31 f0       	breq	.+12     	; 0x284 <DIO_vidset_Pin_Direction+0x86>
 278:	08 95       	ret
 27a:	83 30       	cpi	r24, 0x03	; 3
 27c:	c9 f0       	breq	.+50     	; 0x2b0 <DIO_vidset_Pin_Direction+0xb2>
 27e:	84 30       	cpi	r24, 0x04	; 4
 280:	11 f1       	breq	.+68     	; 0x2c6 <DIO_vidset_Pin_Direction+0xc8>
 282:	08 95       	ret
 284:	2a b3       	in	r18, 0x1a	; 26
 286:	81 e0       	ldi	r24, 0x01	; 1
 288:	90 e0       	ldi	r25, 0x00	; 0
 28a:	01 c0       	rjmp	.+2      	; 0x28e <DIO_vidset_Pin_Direction+0x90>
 28c:	88 0f       	add	r24, r24
 28e:	6a 95       	dec	r22
 290:	ea f7       	brpl	.-6      	; 0x28c <DIO_vidset_Pin_Direction+0x8e>
 292:	80 95       	com	r24
 294:	82 23       	and	r24, r18
 296:	8a bb       	out	0x1a, r24	; 26
 298:	08 95       	ret
 29a:	27 b3       	in	r18, 0x17	; 23
 29c:	81 e0       	ldi	r24, 0x01	; 1
 29e:	90 e0       	ldi	r25, 0x00	; 0
 2a0:	01 c0       	rjmp	.+2      	; 0x2a4 <DIO_vidset_Pin_Direction+0xa6>
 2a2:	88 0f       	add	r24, r24
 2a4:	6a 95       	dec	r22
 2a6:	ea f7       	brpl	.-6      	; 0x2a2 <DIO_vidset_Pin_Direction+0xa4>
 2a8:	80 95       	com	r24
 2aa:	82 23       	and	r24, r18
 2ac:	87 bb       	out	0x17, r24	; 23
 2ae:	08 95       	ret
 2b0:	24 b3       	in	r18, 0x14	; 20
 2b2:	81 e0       	ldi	r24, 0x01	; 1
 2b4:	90 e0       	ldi	r25, 0x00	; 0
 2b6:	01 c0       	rjmp	.+2      	; 0x2ba <DIO_vidset_Pin_Direction+0xbc>
 2b8:	88 0f       	add	r24, r24
 2ba:	6a 95       	dec	r22
 2bc:	ea f7       	brpl	.-6      	; 0x2b8 <DIO_vidset_Pin_Direction+0xba>
 2be:	80 95       	com	r24
 2c0:	82 23       	and	r24, r18
 2c2:	84 bb       	out	0x14, r24	; 20
 2c4:	08 95       	ret
 2c6:	21 b3       	in	r18, 0x11	; 17
 2c8:	81 e0       	ldi	r24, 0x01	; 1
 2ca:	90 e0       	ldi	r25, 0x00	; 0
 2cc:	01 c0       	rjmp	.+2      	; 0x2d0 <DIO_vidset_Pin_Direction+0xd2>
 2ce:	88 0f       	add	r24, r24
 2d0:	6a 95       	dec	r22
 2d2:	ea f7       	brpl	.-6      	; 0x2ce <DIO_vidset_Pin_Direction+0xd0>
 2d4:	80 95       	com	r24
 2d6:	82 23       	and	r24, r18
 2d8:	81 bb       	out	0x11, r24	; 17
 2da:	08 95       	ret

000002dc <DIO_vidset_Pin_Value>:
 2dc:	44 23       	and	r20, r20
 2de:	e9 f1       	breq	.+122    	; 0x35a <DIO_vidset_Pin_Value+0x7e>
 2e0:	68 30       	cpi	r22, 0x08	; 8
 2e2:	08 f0       	brcs	.+2      	; 0x2e6 <DIO_vidset_Pin_Value+0xa>
 2e4:	69 c0       	rjmp	.+210    	; 0x3b8 <DIO_vidset_Pin_Value+0xdc>
 2e6:	82 30       	cpi	r24, 0x02	; 2
 2e8:	91 f0       	breq	.+36     	; 0x30e <DIO_vidset_Pin_Value+0x32>
 2ea:	18 f4       	brcc	.+6      	; 0x2f2 <DIO_vidset_Pin_Value+0x16>
 2ec:	81 30       	cpi	r24, 0x01	; 1
 2ee:	31 f0       	breq	.+12     	; 0x2fc <DIO_vidset_Pin_Value+0x20>
 2f0:	08 95       	ret
 2f2:	83 30       	cpi	r24, 0x03	; 3
 2f4:	a9 f0       	breq	.+42     	; 0x320 <DIO_vidset_Pin_Value+0x44>
 2f6:	84 30       	cpi	r24, 0x04	; 4
 2f8:	e1 f0       	breq	.+56     	; 0x332 <DIO_vidset_Pin_Value+0x56>
 2fa:	08 95       	ret
 2fc:	2b b3       	in	r18, 0x1b	; 27
 2fe:	81 e0       	ldi	r24, 0x01	; 1
 300:	90 e0       	ldi	r25, 0x00	; 0
 302:	01 c0       	rjmp	.+2      	; 0x306 <DIO_vidset_Pin_Value+0x2a>
 304:	88 0f       	add	r24, r24
 306:	6a 95       	dec	r22
 308:	ea f7       	brpl	.-6      	; 0x304 <DIO_vidset_Pin_Value+0x28>
 30a:	82 2b       	or	r24, r18
 30c:	24 c0       	rjmp	.+72     	; 0x356 <DIO_vidset_Pin_Value+0x7a>
 30e:	28 b3       	in	r18, 0x18	; 24
 310:	81 e0       	ldi	r24, 0x01	; 1
 312:	90 e0       	ldi	r25, 0x00	; 0
 314:	01 c0       	rjmp	.+2      	; 0x318 <DIO_vidset_Pin_Value+0x3c>
 316:	88 0f       	add	r24, r24
 318:	6a 95       	dec	r22
 31a:	ea f7       	brpl	.-6      	; 0x316 <DIO_vidset_Pin_Value+0x3a>
 31c:	82 2b       	or	r24, r18
 31e:	2a c0       	rjmp	.+84     	; 0x374 <DIO_vidset_Pin_Value+0x98>
 320:	25 b3       	in	r18, 0x15	; 21
 322:	81 e0       	ldi	r24, 0x01	; 1
 324:	90 e0       	ldi	r25, 0x00	; 0
 326:	01 c0       	rjmp	.+2      	; 0x32a <DIO_vidset_Pin_Value+0x4e>
 328:	88 0f       	add	r24, r24
 32a:	6a 95       	dec	r22
 32c:	ea f7       	brpl	.-6      	; 0x328 <DIO_vidset_Pin_Value+0x4c>
 32e:	82 2b       	or	r24, r18
 330:	30 c0       	rjmp	.+96     	; 0x392 <DIO_vidset_Pin_Value+0xb6>
 332:	22 b3       	in	r18, 0x12	; 18
 334:	81 e0       	ldi	r24, 0x01	; 1
 336:	90 e0       	ldi	r25, 0x00	; 0
 338:	01 c0       	rjmp	.+2      	; 0x33c <DIO_vidset_Pin_Value+0x60>
 33a:	88 0f       	add	r24, r24
 33c:	6a 95       	dec	r22
 33e:	ea f7       	brpl	.-6      	; 0x33a <DIO_vidset_Pin_Value+0x5e>
 340:	82 2b       	or	r24, r18
 342:	32 c0       	rjmp	.+100    	; 0x3a8 <DIO_vidset_Pin_Value+0xcc>
 344:	2b b3       	in	r18, 0x1b	; 27
 346:	81 e0       	ldi	r24, 0x01	; 1
 348:	90 e0       	ldi	r25, 0x00	; 0
 34a:	01 c0       	rjmp	.+2      	; 0x34e <DIO_vidset_Pin_Value+0x72>
 34c:	88 0f       	add	r24, r24
 34e:	6a 95       	dec	r22
 350:	ea f7       	brpl	.-6      	; 0x34c <DIO_vidset_Pin_Value+0x70>
 352:	80 95       	com	r24
 354:	82 23       	and	r24, r18
 356:	8b bb       	out	0x1b, r24	; 27
 358:	08 95       	ret
 35a:	68 30       	cpi	r22, 0x08	; 8
 35c:	68 f5       	brcc	.+90     	; 0x3b8 <DIO_vidset_Pin_Value+0xdc>
 35e:	82 30       	cpi	r24, 0x02	; 2
 360:	59 f4       	brne	.+22     	; 0x378 <DIO_vidset_Pin_Value+0x9c>
 362:	28 b3       	in	r18, 0x18	; 24
 364:	81 e0       	ldi	r24, 0x01	; 1
 366:	90 e0       	ldi	r25, 0x00	; 0
 368:	01 c0       	rjmp	.+2      	; 0x36c <DIO_vidset_Pin_Value+0x90>
 36a:	88 0f       	add	r24, r24
 36c:	6a 95       	dec	r22
 36e:	ea f7       	brpl	.-6      	; 0x36a <DIO_vidset_Pin_Value+0x8e>
 370:	80 95       	com	r24
 372:	82 23       	and	r24, r18
 374:	88 bb       	out	0x18, r24	; 24
 376:	08 95       	ret
 378:	83 30       	cpi	r24, 0x03	; 3
 37a:	c0 f0       	brcs	.+48     	; 0x3ac <DIO_vidset_Pin_Value+0xd0>
 37c:	83 30       	cpi	r24, 0x03	; 3
 37e:	c9 f4       	brne	.+50     	; 0x3b2 <DIO_vidset_Pin_Value+0xd6>
 380:	25 b3       	in	r18, 0x15	; 21
 382:	81 e0       	ldi	r24, 0x01	; 1
 384:	90 e0       	ldi	r25, 0x00	; 0
 386:	01 c0       	rjmp	.+2      	; 0x38a <DIO_vidset_Pin_Value+0xae>
 388:	88 0f       	add	r24, r24
 38a:	6a 95       	dec	r22
 38c:	ea f7       	brpl	.-6      	; 0x388 <DIO_vidset_Pin_Value+0xac>
 38e:	80 95       	com	r24
 390:	82 23       	and	r24, r18
 392:	85 bb       	out	0x15, r24	; 21
 394:	08 95       	ret
 396:	22 b3       	in	r18, 0x12	; 18
 398:	81 e0       	ldi	r24, 0x01	; 1
 39a:	90 e0       	ldi	r25, 0x00	; 0
 39c:	01 c0       	rjmp	.+2      	; 0x3a0 <DIO_vidset_Pin_Value+0xc4>
 39e:	88 0f       	add	r24, r24
 3a0:	6a 95       	dec	r22
 3a2:	ea f7       	brpl	.-6      	; 0x39e <DIO_vidset_Pin_Value+0xc2>
 3a4:	80 95       	com	r24
 3a6:	82 23       	and	r24, r18
 3a8:	82 bb       	out	0x12, r24	; 18
 3aa:	08 95       	ret
 3ac:	81 30       	cpi	r24, 0x01	; 1
 3ae:	51 f2       	breq	.-108    	; 0x344 <DIO_vidset_Pin_Value+0x68>
 3b0:	08 95       	ret
 3b2:	84 30       	cpi	r24, 0x04	; 4
 3b4:	81 f3       	breq	.-32     	; 0x396 <DIO_vidset_Pin_Value+0xba>
 3b6:	08 95       	ret
 3b8:	08 95       	ret

000003ba <_exit>:
 3ba:	f8 94       	cli

000003bc <__stop_program>:
 3bc:	ff cf       	rjmp	.-2      	; 0x3bc <__stop_program>
