
project.elf:     file format elf32-avr

Sections:
Idx Name          Size      VMA       LMA       File off  Algn
  0 .text         000006fe  00000000  00000000  00000074  2**1
                  CONTENTS, ALLOC, LOAD, READONLY, CODE
  1 .data         00000060  00800060  000006fe  00000772  2**0
                  CONTENTS, ALLOC, LOAD, DATA
  2 .comment      00000030  00000000  00000000  000007d2  2**0
                  CONTENTS, READONLY
  3 .note.gnu.avr.deviceinfo 0000003c  00000000  00000000  00000804  2**2
                  CONTENTS, READONLY
  4 .debug_info   000004e6  00000000  00000000  00000840  2**0
                  CONTENTS, READONLY, DEBUGGING
  5 .debug_abbrev 000004a3  00000000  00000000  00000d26  2**0
                  CONTENTS, READONLY, DEBUGGING
  6 .debug_line   00000116  00000000  00000000  000011c9  2**0
                  CONTENTS, READONLY, DEBUGGING
  7 .debug_str    00000196  00000000  00000000  000012df  2**0
                  CONTENTS, READONLY, DEBUGGING

Disassembly of section .text:

00000000 <__vectors>:
   0:	0c 94 2a 00 	jmp	0x54	; 0x54 <__ctors_end>
   4:	0c 94 3f 00 	jmp	0x7e	; 0x7e <__bad_interrupt>
   8:	0c 94 3f 00 	jmp	0x7e	; 0x7e <__bad_interrupt>
   c:	0c 94 3f 00 	jmp	0x7e	; 0x7e <__bad_interrupt>
  10:	0c 94 3f 00 	jmp	0x7e	; 0x7e <__bad_interrupt>
  14:	0c 94 3f 00 	jmp	0x7e	; 0x7e <__bad_interrupt>
  18:	0c 94 3f 00 	jmp	0x7e	; 0x7e <__bad_interrupt>
  1c:	0c 94 3f 00 	jmp	0x7e	; 0x7e <__bad_interrupt>
  20:	0c 94 3f 00 	jmp	0x7e	; 0x7e <__bad_interrupt>
  24:	0c 94 3f 00 	jmp	0x7e	; 0x7e <__bad_interrupt>
  28:	0c 94 3f 00 	jmp	0x7e	; 0x7e <__bad_interrupt>
  2c:	0c 94 3f 00 	jmp	0x7e	; 0x7e <__bad_interrupt>
  30:	0c 94 3f 00 	jmp	0x7e	; 0x7e <__bad_interrupt>
  34:	0c 94 3f 00 	jmp	0x7e	; 0x7e <__bad_interrupt>
  38:	0c 94 3f 00 	jmp	0x7e	; 0x7e <__bad_interrupt>
  3c:	0c 94 3f 00 	jmp	0x7e	; 0x7e <__bad_interrupt>
  40:	0c 94 3f 00 	jmp	0x7e	; 0x7e <__bad_interrupt>
  44:	0c 94 3f 00 	jmp	0x7e	; 0x7e <__bad_interrupt>
  48:	0c 94 3f 00 	jmp	0x7e	; 0x7e <__bad_interrupt>
  4c:	0c 94 3f 00 	jmp	0x7e	; 0x7e <__bad_interrupt>
  50:	0c 94 3f 00 	jmp	0x7e	; 0x7e <__bad_interrupt>

00000054 <__ctors_end>:
  54:	11 24       	eor	r1, r1
  56:	1f be       	out	0x3f, r1	; 63
  58:	cf e5       	ldi	r28, 0x5F	; 95
  5a:	d8 e0       	ldi	r29, 0x08	; 8
  5c:	de bf       	out	0x3e, r29	; 62
  5e:	cd bf       	out	0x3d, r28	; 61

00000060 <__do_copy_data>:
  60:	10 e0       	ldi	r17, 0x00	; 0
  62:	a0 e6       	ldi	r26, 0x60	; 96
  64:	b0 e0       	ldi	r27, 0x00	; 0
  66:	ee ef       	ldi	r30, 0xFE	; 254
  68:	f6 e0       	ldi	r31, 0x06	; 6
  6a:	02 c0       	rjmp	.+4      	; 0x70 <__do_copy_data+0x10>
  6c:	05 90       	lpm	r0, Z+
  6e:	0d 92       	st	X+, r0
  70:	a0 3c       	cpi	r26, 0xC0	; 192
  72:	b1 07       	cpc	r27, r17
  74:	d9 f7       	brne	.-10     	; 0x6c <__do_copy_data+0xc>
  76:	0e 94 7f 02 	call	0x4fe	; 0x4fe <main>
  7a:	0c 94 7d 03 	jmp	0x6fa	; 0x6fa <_exit>

0000007e <__bad_interrupt>:
  7e:	0c 94 00 00 	jmp	0	; 0x0 <__vectors>

00000082 <KeyPad_INT>:
  82:	af 92       	push	r10
  84:	bf 92       	push	r11
  86:	cf 92       	push	r12
  88:	df 92       	push	r13
  8a:	ef 92       	push	r14
  8c:	ff 92       	push	r15
  8e:	0f 93       	push	r16
  90:	1f 93       	push	r17
  92:	cf 93       	push	r28
  94:	df 93       	push	r29
  96:	04 e6       	ldi	r16, 0x64	; 100
  98:	10 e0       	ldi	r17, 0x00	; 0
  9a:	98 e6       	ldi	r25, 0x68	; 104
  9c:	c9 2e       	mov	r12, r25
  9e:	90 e0       	ldi	r25, 0x00	; 0
  a0:	d9 2e       	mov	r13, r25
  a2:	e8 01       	movw	r28, r16
  a4:	69 91       	ld	r22, Y+
  a6:	41 e0       	ldi	r20, 0x01	; 1
  a8:	83 e0       	ldi	r24, 0x03	; 3
  aa:	0e 94 81 02 	call	0x502	; 0x502 <DIO_vidset_Pin_Direction>
  ae:	cc 16       	cp	r12, r28
  b0:	dd 06       	cpc	r13, r29
  b2:	c1 f7       	brne	.-16     	; 0xa4 <KeyPad_INT+0x22>
  b4:	c0 e6       	ldi	r28, 0x60	; 96
  b6:	d0 e0       	ldi	r29, 0x00	; 0
  b8:	84 e6       	ldi	r24, 0x64	; 100
  ba:	a8 2e       	mov	r10, r24
  bc:	80 e0       	ldi	r24, 0x00	; 0
  be:	b8 2e       	mov	r11, r24
  c0:	7e 01       	movw	r14, r28
  c2:	f7 01       	movw	r30, r14
  c4:	61 91       	ld	r22, Z+
  c6:	7f 01       	movw	r14, r30
  c8:	40 e0       	ldi	r20, 0x00	; 0
  ca:	84 e0       	ldi	r24, 0x04	; 4
  cc:	0e 94 81 02 	call	0x502	; 0x502 <DIO_vidset_Pin_Direction>
  d0:	ae 14       	cp	r10, r14
  d2:	bf 04       	cpc	r11, r15
  d4:	b1 f7       	brne	.-20     	; 0xc2 <KeyPad_INT+0x40>
  d6:	f8 01       	movw	r30, r16
  d8:	61 91       	ld	r22, Z+
  da:	8f 01       	movw	r16, r30
  dc:	41 e0       	ldi	r20, 0x01	; 1
  de:	83 e0       	ldi	r24, 0x03	; 3
  e0:	0e 94 f0 02 	call	0x5e0	; 0x5e0 <DIO_vidset_Pin_Value>
  e4:	c0 16       	cp	r12, r16
  e6:	d1 06       	cpc	r13, r17
  e8:	b1 f7       	brne	.-20     	; 0xd6 <KeyPad_INT+0x54>
  ea:	69 91       	ld	r22, Y+
  ec:	41 e0       	ldi	r20, 0x01	; 1
  ee:	84 e0       	ldi	r24, 0x04	; 4
  f0:	0e 94 f0 02 	call	0x5e0	; 0x5e0 <DIO_vidset_Pin_Value>
  f4:	ac 16       	cp	r10, r28
  f6:	bd 06       	cpc	r11, r29
  f8:	c1 f7       	brne	.-16     	; 0xea <KeyPad_INT+0x68>
  fa:	df 91       	pop	r29
  fc:	cf 91       	pop	r28
  fe:	1f 91       	pop	r17
 100:	0f 91       	pop	r16
 102:	ff 90       	pop	r15
 104:	ef 90       	pop	r14
 106:	df 90       	pop	r13
 108:	cf 90       	pop	r12
 10a:	bf 90       	pop	r11
 10c:	af 90       	pop	r10
 10e:	08 95       	ret

00000110 <KeyPad_READ>:
 110:	7f 92       	push	r7
 112:	8f 92       	push	r8
 114:	9f 92       	push	r9
 116:	af 92       	push	r10
 118:	bf 92       	push	r11
 11a:	cf 92       	push	r12
 11c:	df 92       	push	r13
 11e:	ef 92       	push	r14
 120:	ff 92       	push	r15
 122:	0f 93       	push	r16
 124:	1f 93       	push	r17
 126:	cf 93       	push	r28
 128:	df 93       	push	r29
 12a:	cd b7       	in	r28, 0x3d	; 61
 12c:	de b7       	in	r29, 0x3e	; 62
 12e:	61 97       	sbiw	r28, 0x11	; 17
 130:	0f b6       	in	r0, 0x3f	; 63
 132:	f8 94       	cli
 134:	de bf       	out	0x3e, r29	; 62
 136:	0f be       	out	0x3f, r0	; 63
 138:	cd bf       	out	0x3d, r28	; 61
 13a:	81 e0       	ldi	r24, 0x01	; 1
 13c:	89 8b       	std	Y+17, r24	; 0x11
 13e:	80 e1       	ldi	r24, 0x10	; 16
 140:	e8 e6       	ldi	r30, 0x68	; 104
 142:	f0 e0       	ldi	r31, 0x00	; 0
 144:	de 01       	movw	r26, r28
 146:	11 96       	adiw	r26, 0x01	; 1
 148:	01 90       	ld	r0, Z+
 14a:	0d 92       	st	X+, r0
 14c:	8a 95       	dec	r24
 14e:	e1 f7       	brne	.-8      	; 0x148 <KeyPad_READ+0x38>
 150:	94 e6       	ldi	r25, 0x64	; 100
 152:	e9 2e       	mov	r14, r25
 154:	90 e0       	ldi	r25, 0x00	; 0
 156:	f9 2e       	mov	r15, r25
 158:	8e 01       	movw	r16, r28
 15a:	0f 5f       	subi	r16, 0xFF	; 255
 15c:	1f 4f       	sbci	r17, 0xFF	; 255
 15e:	2f e0       	ldi	r18, 0x0F	; 15
 160:	72 2e       	mov	r7, r18
 162:	47 01       	movw	r8, r14
 164:	40 e0       	ldi	r20, 0x00	; 0
 166:	f7 01       	movw	r30, r14
 168:	60 81       	ld	r22, Z
 16a:	83 e0       	ldi	r24, 0x03	; 3
 16c:	0e 94 f0 02 	call	0x5e0	; 0x5e0 <DIO_vidset_Pin_Value>
 170:	80 e6       	ldi	r24, 0x60	; 96
 172:	a8 2e       	mov	r10, r24
 174:	80 e0       	ldi	r24, 0x00	; 0
 176:	b8 2e       	mov	r11, r24
 178:	c1 2c       	mov	r12, r1
 17a:	d1 2c       	mov	r13, r1
 17c:	ae 01       	movw	r20, r28
 17e:	4f 5e       	subi	r20, 0xEF	; 239
 180:	5f 4f       	sbci	r21, 0xFF	; 255
 182:	f5 01       	movw	r30, r10
 184:	60 81       	ld	r22, Z
 186:	84 e0       	ldi	r24, 0x04	; 4
 188:	0e 94 5f 03 	call	0x6be	; 0x6be <DIO_vidGET_Pin_Value>
 18c:	89 89       	ldd	r24, Y+17	; 0x11
 18e:	81 11       	cpse	r24, r1
 190:	10 c0       	rjmp	.+32     	; 0x1b2 <KeyPad_READ+0xa2>
 192:	f8 01       	movw	r30, r16
 194:	ec 0d       	add	r30, r12
 196:	fd 1d       	adc	r31, r13
 198:	70 80       	ld	r7, Z
 19a:	89 89       	ldd	r24, Y+17	; 0x11
 19c:	81 11       	cpse	r24, r1
 19e:	09 c0       	rjmp	.+18     	; 0x1b2 <KeyPad_READ+0xa2>
 1a0:	ae 01       	movw	r20, r28
 1a2:	4f 5e       	subi	r20, 0xEF	; 239
 1a4:	5f 4f       	sbci	r21, 0xFF	; 255
 1a6:	f5 01       	movw	r30, r10
 1a8:	60 81       	ld	r22, Z
 1aa:	84 e0       	ldi	r24, 0x04	; 4
 1ac:	0e 94 5f 03 	call	0x6be	; 0x6be <DIO_vidGET_Pin_Value>
 1b0:	f4 cf       	rjmp	.-24     	; 0x19a <KeyPad_READ+0x8a>
 1b2:	ff ef       	ldi	r31, 0xFF	; 255
 1b4:	cf 1a       	sub	r12, r31
 1b6:	df 0a       	sbc	r13, r31
 1b8:	8f ef       	ldi	r24, 0xFF	; 255
 1ba:	a8 1a       	sub	r10, r24
 1bc:	b8 0a       	sbc	r11, r24
 1be:	e4 e0       	ldi	r30, 0x04	; 4
 1c0:	ce 16       	cp	r12, r30
 1c2:	d1 04       	cpc	r13, r1
 1c4:	d9 f6       	brne	.-74     	; 0x17c <KeyPad_READ+0x6c>
 1c6:	ff ef       	ldi	r31, 0xFF	; 255
 1c8:	ef 1a       	sub	r14, r31
 1ca:	ff 0a       	sbc	r15, r31
 1cc:	41 e0       	ldi	r20, 0x01	; 1
 1ce:	f4 01       	movw	r30, r8
 1d0:	60 81       	ld	r22, Z
 1d2:	83 e0       	ldi	r24, 0x03	; 3
 1d4:	0e 94 f0 02 	call	0x5e0	; 0x5e0 <DIO_vidset_Pin_Value>
 1d8:	0c 5f       	subi	r16, 0xFC	; 252
 1da:	1f 4f       	sbci	r17, 0xFF	; 255
 1dc:	f8 e6       	ldi	r31, 0x68	; 104
 1de:	ef 16       	cp	r14, r31
 1e0:	f0 e0       	ldi	r31, 0x00	; 0
 1e2:	ff 06       	cpc	r15, r31
 1e4:	09 f0       	breq	.+2      	; 0x1e8 <KeyPad_READ+0xd8>
 1e6:	bd cf       	rjmp	.-134    	; 0x162 <KeyPad_READ+0x52>
 1e8:	8f e0       	ldi	r24, 0x0F	; 15
 1ea:	78 16       	cp	r7, r24
 1ec:	11 f0       	breq	.+4      	; 0x1f2 <KeyPad_READ+0xe2>
 1ee:	87 2d       	mov	r24, r7
 1f0:	00 c0       	rjmp	.+0      	; 0x1f2 <KeyPad_READ+0xe2>
 1f2:	61 96       	adiw	r28, 0x11	; 17
 1f4:	0f b6       	in	r0, 0x3f	; 63
 1f6:	f8 94       	cli
 1f8:	de bf       	out	0x3e, r29	; 62
 1fa:	0f be       	out	0x3f, r0	; 63
 1fc:	cd bf       	out	0x3d, r28	; 61
 1fe:	df 91       	pop	r29
 200:	cf 91       	pop	r28
 202:	1f 91       	pop	r17
 204:	0f 91       	pop	r16
 206:	ff 90       	pop	r15
 208:	ef 90       	pop	r14
 20a:	df 90       	pop	r13
 20c:	cf 90       	pop	r12
 20e:	bf 90       	pop	r11
 210:	af 90       	pop	r10
 212:	9f 90       	pop	r9
 214:	8f 90       	pop	r8
 216:	7f 90       	pop	r7
 218:	08 95       	ret

0000021a <LCD_voidsendcommand>:
 21a:	cf 93       	push	r28
 21c:	c8 2f       	mov	r28, r24
 21e:	40 e0       	ldi	r20, 0x00	; 0
 220:	62 e0       	ldi	r22, 0x02	; 2
 222:	81 e0       	ldi	r24, 0x01	; 1
 224:	0e 94 f0 02 	call	0x5e0	; 0x5e0 <DIO_vidset_Pin_Value>
 228:	40 e0       	ldi	r20, 0x00	; 0
 22a:	63 e0       	ldi	r22, 0x03	; 3
 22c:	81 e0       	ldi	r24, 0x01	; 1
 22e:	0e 94 f0 02 	call	0x5e0	; 0x5e0 <DIO_vidset_Pin_Value>
 232:	c4 fb       	bst	r28, 4
 234:	44 27       	eor	r20, r20
 236:	40 f9       	bld	r20, 0
 238:	60 e0       	ldi	r22, 0x00	; 0
 23a:	82 e0       	ldi	r24, 0x02	; 2
 23c:	0e 94 f0 02 	call	0x5e0	; 0x5e0 <DIO_vidset_Pin_Value>
 240:	c5 fb       	bst	r28, 5
 242:	44 27       	eor	r20, r20
 244:	40 f9       	bld	r20, 0
 246:	61 e0       	ldi	r22, 0x01	; 1
 248:	82 e0       	ldi	r24, 0x02	; 2
 24a:	0e 94 f0 02 	call	0x5e0	; 0x5e0 <DIO_vidset_Pin_Value>
 24e:	c6 fb       	bst	r28, 6
 250:	44 27       	eor	r20, r20
 252:	40 f9       	bld	r20, 0
 254:	62 e0       	ldi	r22, 0x02	; 2
 256:	82 e0       	ldi	r24, 0x02	; 2
 258:	0e 94 f0 02 	call	0x5e0	; 0x5e0 <DIO_vidset_Pin_Value>
 25c:	4c 2f       	mov	r20, r28
 25e:	44 1f       	adc	r20, r20
 260:	44 27       	eor	r20, r20
 262:	44 1f       	adc	r20, r20
 264:	64 e0       	ldi	r22, 0x04	; 4
 266:	82 e0       	ldi	r24, 0x02	; 2
 268:	0e 94 f0 02 	call	0x5e0	; 0x5e0 <DIO_vidset_Pin_Value>
 26c:	41 e0       	ldi	r20, 0x01	; 1
 26e:	62 e0       	ldi	r22, 0x02	; 2
 270:	81 e0       	ldi	r24, 0x01	; 1
 272:	0e 94 f0 02 	call	0x5e0	; 0x5e0 <DIO_vidset_Pin_Value>
 276:	83 ef       	ldi	r24, 0xF3	; 243
 278:	91 e0       	ldi	r25, 0x01	; 1
 27a:	01 97       	sbiw	r24, 0x01	; 1
 27c:	f1 f7       	brne	.-4      	; 0x27a <LCD_voidsendcommand+0x60>
 27e:	00 c0       	rjmp	.+0      	; 0x280 <LCD_voidsendcommand+0x66>
 280:	00 00       	nop
 282:	40 e0       	ldi	r20, 0x00	; 0
 284:	62 e0       	ldi	r22, 0x02	; 2
 286:	81 e0       	ldi	r24, 0x01	; 1
 288:	0e 94 f0 02 	call	0x5e0	; 0x5e0 <DIO_vidset_Pin_Value>
 28c:	4c 2f       	mov	r20, r28
 28e:	41 70       	andi	r20, 0x01	; 1
 290:	60 e0       	ldi	r22, 0x00	; 0
 292:	82 e0       	ldi	r24, 0x02	; 2
 294:	0e 94 f0 02 	call	0x5e0	; 0x5e0 <DIO_vidset_Pin_Value>
 298:	c1 fb       	bst	r28, 1
 29a:	44 27       	eor	r20, r20
 29c:	40 f9       	bld	r20, 0
 29e:	61 e0       	ldi	r22, 0x01	; 1
 2a0:	82 e0       	ldi	r24, 0x02	; 2
 2a2:	0e 94 f0 02 	call	0x5e0	; 0x5e0 <DIO_vidset_Pin_Value>
 2a6:	c2 fb       	bst	r28, 2
 2a8:	44 27       	eor	r20, r20
 2aa:	40 f9       	bld	r20, 0
 2ac:	62 e0       	ldi	r22, 0x02	; 2
 2ae:	82 e0       	ldi	r24, 0x02	; 2
 2b0:	0e 94 f0 02 	call	0x5e0	; 0x5e0 <DIO_vidset_Pin_Value>
 2b4:	c3 fb       	bst	r28, 3
 2b6:	44 27       	eor	r20, r20
 2b8:	40 f9       	bld	r20, 0
 2ba:	64 e0       	ldi	r22, 0x04	; 4
 2bc:	82 e0       	ldi	r24, 0x02	; 2
 2be:	0e 94 f0 02 	call	0x5e0	; 0x5e0 <DIO_vidset_Pin_Value>
 2c2:	41 e0       	ldi	r20, 0x01	; 1
 2c4:	62 e0       	ldi	r22, 0x02	; 2
 2c6:	81 e0       	ldi	r24, 0x01	; 1
 2c8:	0e 94 f0 02 	call	0x5e0	; 0x5e0 <DIO_vidset_Pin_Value>
 2cc:	83 ef       	ldi	r24, 0xF3	; 243
 2ce:	91 e0       	ldi	r25, 0x01	; 1
 2d0:	01 97       	sbiw	r24, 0x01	; 1
 2d2:	f1 f7       	brne	.-4      	; 0x2d0 <LCD_voidsendcommand+0xb6>
 2d4:	00 c0       	rjmp	.+0      	; 0x2d6 <LCD_voidsendcommand+0xbc>
 2d6:	00 00       	nop
 2d8:	40 e0       	ldi	r20, 0x00	; 0
 2da:	62 e0       	ldi	r22, 0x02	; 2
 2dc:	81 e0       	ldi	r24, 0x01	; 1
 2de:	0e 94 f0 02 	call	0x5e0	; 0x5e0 <DIO_vidset_Pin_Value>
 2e2:	81 ee       	ldi	r24, 0xE1	; 225
 2e4:	94 e0       	ldi	r25, 0x04	; 4
 2e6:	01 97       	sbiw	r24, 0x01	; 1
 2e8:	f1 f7       	brne	.-4      	; 0x2e6 <LCD_voidsendcommand+0xcc>
 2ea:	00 c0       	rjmp	.+0      	; 0x2ec <LCD_voidsendcommand+0xd2>
 2ec:	00 00       	nop
 2ee:	cf 91       	pop	r28
 2f0:	08 95       	ret

000002f2 <LCD_voidInt>:
 2f2:	41 e0       	ldi	r20, 0x01	; 1
 2f4:	62 e0       	ldi	r22, 0x02	; 2
 2f6:	81 e0       	ldi	r24, 0x01	; 1
 2f8:	0e 94 81 02 	call	0x502	; 0x502 <DIO_vidset_Pin_Direction>
 2fc:	41 e0       	ldi	r20, 0x01	; 1
 2fe:	63 e0       	ldi	r22, 0x03	; 3
 300:	81 e0       	ldi	r24, 0x01	; 1
 302:	0e 94 81 02 	call	0x502	; 0x502 <DIO_vidset_Pin_Direction>
 306:	41 e0       	ldi	r20, 0x01	; 1
 308:	60 e0       	ldi	r22, 0x00	; 0
 30a:	82 e0       	ldi	r24, 0x02	; 2
 30c:	0e 94 81 02 	call	0x502	; 0x502 <DIO_vidset_Pin_Direction>
 310:	41 e0       	ldi	r20, 0x01	; 1
 312:	61 e0       	ldi	r22, 0x01	; 1
 314:	82 e0       	ldi	r24, 0x02	; 2
 316:	0e 94 81 02 	call	0x502	; 0x502 <DIO_vidset_Pin_Direction>
 31a:	41 e0       	ldi	r20, 0x01	; 1
 31c:	62 e0       	ldi	r22, 0x02	; 2
 31e:	82 e0       	ldi	r24, 0x02	; 2
 320:	0e 94 81 02 	call	0x502	; 0x502 <DIO_vidset_Pin_Direction>
 324:	41 e0       	ldi	r20, 0x01	; 1
 326:	64 e0       	ldi	r22, 0x04	; 4
 328:	82 e0       	ldi	r24, 0x02	; 2
 32a:	0e 94 81 02 	call	0x502	; 0x502 <DIO_vidset_Pin_Direction>
 32e:	87 ea       	ldi	r24, 0xA7	; 167
 330:	91 e6       	ldi	r25, 0x61	; 97
 332:	01 97       	sbiw	r24, 0x01	; 1
 334:	f1 f7       	brne	.-4      	; 0x332 <LCD_voidInt+0x40>
 336:	00 c0       	rjmp	.+0      	; 0x338 <LCD_voidInt+0x46>
 338:	00 00       	nop
 33a:	83 e3       	ldi	r24, 0x33	; 51
 33c:	0e 94 0d 01 	call	0x21a	; 0x21a <LCD_voidsendcommand>
 340:	82 e3       	ldi	r24, 0x32	; 50
 342:	0e 94 0d 01 	call	0x21a	; 0x21a <LCD_voidsendcommand>
 346:	88 e2       	ldi	r24, 0x28	; 40
 348:	0e 94 0d 01 	call	0x21a	; 0x21a <LCD_voidsendcommand>
 34c:	8c e0       	ldi	r24, 0x0C	; 12
 34e:	0e 94 0d 01 	call	0x21a	; 0x21a <LCD_voidsendcommand>
 352:	82 e0       	ldi	r24, 0x02	; 2
 354:	0e 94 0d 01 	call	0x21a	; 0x21a <LCD_voidsendcommand>
 358:	81 e0       	ldi	r24, 0x01	; 1
 35a:	0e 94 0d 01 	call	0x21a	; 0x21a <LCD_voidsendcommand>
 35e:	86 e0       	ldi	r24, 0x06	; 6
 360:	0c 94 0d 01 	jmp	0x21a	; 0x21a <LCD_voidsendcommand>

00000364 <LCD_voidSendData>:
 364:	cf 93       	push	r28
 366:	c8 2f       	mov	r28, r24
 368:	40 e0       	ldi	r20, 0x00	; 0
 36a:	62 e0       	ldi	r22, 0x02	; 2
 36c:	81 e0       	ldi	r24, 0x01	; 1
 36e:	0e 94 f0 02 	call	0x5e0	; 0x5e0 <DIO_vidset_Pin_Value>
 372:	41 e0       	ldi	r20, 0x01	; 1
 374:	63 e0       	ldi	r22, 0x03	; 3
 376:	81 e0       	ldi	r24, 0x01	; 1
 378:	0e 94 f0 02 	call	0x5e0	; 0x5e0 <DIO_vidset_Pin_Value>
 37c:	c4 fb       	bst	r28, 4
 37e:	44 27       	eor	r20, r20
 380:	40 f9       	bld	r20, 0
 382:	60 e0       	ldi	r22, 0x00	; 0
 384:	82 e0       	ldi	r24, 0x02	; 2
 386:	0e 94 f0 02 	call	0x5e0	; 0x5e0 <DIO_vidset_Pin_Value>
 38a:	c5 fb       	bst	r28, 5
 38c:	44 27       	eor	r20, r20
 38e:	40 f9       	bld	r20, 0
 390:	61 e0       	ldi	r22, 0x01	; 1
 392:	82 e0       	ldi	r24, 0x02	; 2
 394:	0e 94 f0 02 	call	0x5e0	; 0x5e0 <DIO_vidset_Pin_Value>
 398:	c6 fb       	bst	r28, 6
 39a:	44 27       	eor	r20, r20
 39c:	40 f9       	bld	r20, 0
 39e:	62 e0       	ldi	r22, 0x02	; 2
 3a0:	82 e0       	ldi	r24, 0x02	; 2
 3a2:	0e 94 f0 02 	call	0x5e0	; 0x5e0 <DIO_vidset_Pin_Value>
 3a6:	4c 2f       	mov	r20, r28
 3a8:	44 1f       	adc	r20, r20
 3aa:	44 27       	eor	r20, r20
 3ac:	44 1f       	adc	r20, r20
 3ae:	64 e0       	ldi	r22, 0x04	; 4
 3b0:	82 e0       	ldi	r24, 0x02	; 2
 3b2:	0e 94 f0 02 	call	0x5e0	; 0x5e0 <DIO_vidset_Pin_Value>
 3b6:	41 e0       	ldi	r20, 0x01	; 1
 3b8:	62 e0       	ldi	r22, 0x02	; 2
 3ba:	81 e0       	ldi	r24, 0x01	; 1
 3bc:	0e 94 f0 02 	call	0x5e0	; 0x5e0 <DIO_vidset_Pin_Value>
 3c0:	83 ef       	ldi	r24, 0xF3	; 243
 3c2:	91 e0       	ldi	r25, 0x01	; 1
 3c4:	01 97       	sbiw	r24, 0x01	; 1
 3c6:	f1 f7       	brne	.-4      	; 0x3c4 <LCD_voidSendData+0x60>
 3c8:	00 c0       	rjmp	.+0      	; 0x3ca <LCD_voidSendData+0x66>
 3ca:	00 00       	nop
 3cc:	40 e0       	ldi	r20, 0x00	; 0
 3ce:	62 e0       	ldi	r22, 0x02	; 2
 3d0:	81 e0       	ldi	r24, 0x01	; 1
 3d2:	0e 94 f0 02 	call	0x5e0	; 0x5e0 <DIO_vidset_Pin_Value>
 3d6:	4c 2f       	mov	r20, r28
 3d8:	41 70       	andi	r20, 0x01	; 1
 3da:	60 e0       	ldi	r22, 0x00	; 0
 3dc:	82 e0       	ldi	r24, 0x02	; 2
 3de:	0e 94 f0 02 	call	0x5e0	; 0x5e0 <DIO_vidset_Pin_Value>
 3e2:	c1 fb       	bst	r28, 1
 3e4:	44 27       	eor	r20, r20
 3e6:	40 f9       	bld	r20, 0
 3e8:	61 e0       	ldi	r22, 0x01	; 1
 3ea:	82 e0       	ldi	r24, 0x02	; 2
 3ec:	0e 94 f0 02 	call	0x5e0	; 0x5e0 <DIO_vidset_Pin_Value>
 3f0:	c2 fb       	bst	r28, 2
 3f2:	44 27       	eor	r20, r20
 3f4:	40 f9       	bld	r20, 0
 3f6:	62 e0       	ldi	r22, 0x02	; 2
 3f8:	82 e0       	ldi	r24, 0x02	; 2
 3fa:	0e 94 f0 02 	call	0x5e0	; 0x5e0 <DIO_vidset_Pin_Value>
 3fe:	c3 fb       	bst	r28, 3
 400:	44 27       	eor	r20, r20
 402:	40 f9       	bld	r20, 0
 404:	64 e0       	ldi	r22, 0x04	; 4
 406:	82 e0       	ldi	r24, 0x02	; 2
 408:	0e 94 f0 02 	call	0x5e0	; 0x5e0 <DIO_vidset_Pin_Value>
 40c:	41 e0       	ldi	r20, 0x01	; 1
 40e:	62 e0       	ldi	r22, 0x02	; 2
 410:	81 e0       	ldi	r24, 0x01	; 1
 412:	0e 94 f0 02 	call	0x5e0	; 0x5e0 <DIO_vidset_Pin_Value>
 416:	83 ef       	ldi	r24, 0xF3	; 243
 418:	91 e0       	ldi	r25, 0x01	; 1
 41a:	01 97       	sbiw	r24, 0x01	; 1
 41c:	f1 f7       	brne	.-4      	; 0x41a <__EEPROM_REGION_LENGTH__+0x1a>
 41e:	00 c0       	rjmp	.+0      	; 0x420 <__EEPROM_REGION_LENGTH__+0x20>
 420:	00 00       	nop
 422:	40 e0       	ldi	r20, 0x00	; 0
 424:	62 e0       	ldi	r22, 0x02	; 2
 426:	81 e0       	ldi	r24, 0x01	; 1
 428:	0e 94 f0 02 	call	0x5e0	; 0x5e0 <DIO_vidset_Pin_Value>
 42c:	81 ee       	ldi	r24, 0xE1	; 225
 42e:	94 e0       	ldi	r25, 0x04	; 4
 430:	01 97       	sbiw	r24, 0x01	; 1
 432:	f1 f7       	brne	.-4      	; 0x430 <__EEPROM_REGION_LENGTH__+0x30>
 434:	00 c0       	rjmp	.+0      	; 0x436 <__EEPROM_REGION_LENGTH__+0x36>
 436:	00 00       	nop
 438:	cf 91       	pop	r28
 43a:	08 95       	ret

0000043c <LCD_voidClearDisplay>:
 43c:	81 e0       	ldi	r24, 0x01	; 1
 43e:	0c 94 0d 01 	jmp	0x21a	; 0x21a <LCD_voidsendcommand>

00000442 <LCD_voidSendString>:
 442:	cf 93       	push	r28
 444:	df 93       	push	r29
 446:	ec 01       	movw	r28, r24
 448:	89 91       	ld	r24, Y+
 44a:	88 23       	and	r24, r24
 44c:	19 f0       	breq	.+6      	; 0x454 <LCD_voidSendString+0x12>
 44e:	0e 94 b2 01 	call	0x364	; 0x364 <LCD_voidSendData>
 452:	fa cf       	rjmp	.-12     	; 0x448 <LCD_voidSendString+0x6>
 454:	df 91       	pop	r29
 456:	cf 91       	pop	r28
 458:	08 95       	ret

0000045a <LCD_voidGoToPosition>:
 45a:	0f 93       	push	r16
 45c:	1f 93       	push	r17
 45e:	cf 93       	push	r28
 460:	df 93       	push	r29
 462:	00 d0       	rcall	.+0      	; 0x464 <LCD_voidGoToPosition+0xa>
 464:	00 d0       	rcall	.+0      	; 0x466 <LCD_voidGoToPosition+0xc>
 466:	cd b7       	in	r28, 0x3d	; 61
 468:	de b7       	in	r29, 0x3e	; 62
 46a:	00 91 78 00 	lds	r16, 0x0078	; 0x800078 <keyPad_ROW_PIN+0x14>
 46e:	10 91 79 00 	lds	r17, 0x0079	; 0x800079 <keyPad_ROW_PIN+0x15>
 472:	20 91 7a 00 	lds	r18, 0x007A	; 0x80007a <keyPad_ROW_PIN+0x16>
 476:	30 91 7b 00 	lds	r19, 0x007B	; 0x80007b <keyPad_ROW_PIN+0x17>
 47a:	09 83       	std	Y+1, r16	; 0x01
 47c:	1a 83       	std	Y+2, r17	; 0x02
 47e:	2b 83       	std	Y+3, r18	; 0x03
 480:	3c 83       	std	Y+4, r19	; 0x04
 482:	fe 01       	movw	r30, r28
 484:	e8 0f       	add	r30, r24
 486:	f1 1d       	adc	r31, r1
 488:	81 81       	ldd	r24, Z+1	; 0x01
 48a:	86 0f       	add	r24, r22
 48c:	0f 90       	pop	r0
 48e:	0f 90       	pop	r0
 490:	0f 90       	pop	r0
 492:	0f 90       	pop	r0
 494:	df 91       	pop	r29
 496:	cf 91       	pop	r28
 498:	1f 91       	pop	r17
 49a:	0f 91       	pop	r16
 49c:	0c 94 0d 01 	jmp	0x21a	; 0x21a <LCD_voidsendcommand>

000004a0 <KEYBAD_NAME_SW_TEST>:
 4a0:	0e 94 79 01 	call	0x2f2	; 0x2f2 <LCD_voidInt>
 4a4:	0e 94 41 00 	call	0x82	; 0x82 <KeyPad_INT>
 4a8:	0e 94 88 00 	call	0x110	; 0x110 <KeyPad_READ>
 4ac:	8f 30       	cpi	r24, 0x0F	; 15
 4ae:	e1 f3       	breq	.-8      	; 0x4a8 <KEYBAD_NAME_SW_TEST+0x8>
 4b0:	99 27       	eor	r25, r25
 4b2:	84 30       	cpi	r24, 0x04	; 4
 4b4:	91 05       	cpc	r25, r1
 4b6:	99 f0       	breq	.+38     	; 0x4de <KEYBAD_NAME_SW_TEST+0x3e>
 4b8:	4c f4       	brge	.+18     	; 0x4cc <KEYBAD_NAME_SW_TEST+0x2c>
 4ba:	01 97       	sbiw	r24, 0x01	; 1
 4bc:	a9 f7       	brne	.-22     	; 0x4a8 <KEYBAD_NAME_SW_TEST+0x8>
 4be:	60 e0       	ldi	r22, 0x00	; 0
 4c0:	80 e0       	ldi	r24, 0x00	; 0
 4c2:	0e 94 2d 02 	call	0x45a	; 0x45a <LCD_voidGoToPosition>
 4c6:	85 ea       	ldi	r24, 0xA5	; 165
 4c8:	90 e0       	ldi	r25, 0x00	; 0
 4ca:	16 c0       	rjmp	.+44     	; 0x4f8 <KEYBAD_NAME_SW_TEST+0x58>
 4cc:	87 30       	cpi	r24, 0x07	; 7
 4ce:	91 05       	cpc	r25, r1
 4d0:	69 f0       	breq	.+26     	; 0x4ec <KEYBAD_NAME_SW_TEST+0x4c>
 4d2:	83 36       	cpi	r24, 0x63	; 99
 4d4:	91 05       	cpc	r25, r1
 4d6:	41 f7       	brne	.-48     	; 0x4a8 <KEYBAD_NAME_SW_TEST+0x8>
 4d8:	0e 94 1e 02 	call	0x43c	; 0x43c <LCD_voidClearDisplay>
 4dc:	e5 cf       	rjmp	.-54     	; 0x4a8 <KEYBAD_NAME_SW_TEST+0x8>
 4de:	60 e0       	ldi	r22, 0x00	; 0
 4e0:	81 e0       	ldi	r24, 0x01	; 1
 4e2:	0e 94 2d 02 	call	0x45a	; 0x45a <LCD_voidGoToPosition>
 4e6:	8e ea       	ldi	r24, 0xAE	; 174
 4e8:	90 e0       	ldi	r25, 0x00	; 0
 4ea:	06 c0       	rjmp	.+12     	; 0x4f8 <KEYBAD_NAME_SW_TEST+0x58>
 4ec:	60 e0       	ldi	r22, 0x00	; 0
 4ee:	82 e0       	ldi	r24, 0x02	; 2
 4f0:	0e 94 2d 02 	call	0x45a	; 0x45a <LCD_voidGoToPosition>
 4f4:	84 eb       	ldi	r24, 0xB4	; 180
 4f6:	90 e0       	ldi	r25, 0x00	; 0
 4f8:	0e 94 21 02 	call	0x442	; 0x442 <LCD_voidSendString>
 4fc:	d5 cf       	rjmp	.-86     	; 0x4a8 <KEYBAD_NAME_SW_TEST+0x8>

000004fe <main>:
 4fe:	0e 94 50 02 	call	0x4a0	; 0x4a0 <KEYBAD_NAME_SW_TEST>

00000502 <DIO_vidset_Pin_Direction>:
 502:	41 30       	cpi	r20, 0x01	; 1
 504:	91 f5       	brne	.+100    	; 0x56a <DIO_vidset_Pin_Direction+0x68>
 506:	68 30       	cpi	r22, 0x08	; 8
 508:	08 f0       	brcs	.+2      	; 0x50c <DIO_vidset_Pin_Direction+0xa>
 50a:	69 c0       	rjmp	.+210    	; 0x5de <DIO_vidset_Pin_Direction+0xdc>
 50c:	82 30       	cpi	r24, 0x02	; 2
 50e:	91 f0       	breq	.+36     	; 0x534 <DIO_vidset_Pin_Direction+0x32>
 510:	18 f4       	brcc	.+6      	; 0x518 <DIO_vidset_Pin_Direction+0x16>
 512:	81 30       	cpi	r24, 0x01	; 1
 514:	31 f0       	breq	.+12     	; 0x522 <DIO_vidset_Pin_Direction+0x20>
 516:	08 95       	ret
 518:	83 30       	cpi	r24, 0x03	; 3
 51a:	a9 f0       	breq	.+42     	; 0x546 <DIO_vidset_Pin_Direction+0x44>
 51c:	84 30       	cpi	r24, 0x04	; 4
 51e:	e1 f0       	breq	.+56     	; 0x558 <DIO_vidset_Pin_Direction+0x56>
 520:	08 95       	ret
 522:	2a b3       	in	r18, 0x1a	; 26
 524:	81 e0       	ldi	r24, 0x01	; 1
 526:	90 e0       	ldi	r25, 0x00	; 0
 528:	01 c0       	rjmp	.+2      	; 0x52c <DIO_vidset_Pin_Direction+0x2a>
 52a:	88 0f       	add	r24, r24
 52c:	6a 95       	dec	r22
 52e:	ea f7       	brpl	.-6      	; 0x52a <DIO_vidset_Pin_Direction+0x28>
 530:	82 2b       	or	r24, r18
 532:	33 c0       	rjmp	.+102    	; 0x59a <DIO_vidset_Pin_Direction+0x98>
 534:	27 b3       	in	r18, 0x17	; 23
 536:	81 e0       	ldi	r24, 0x01	; 1
 538:	90 e0       	ldi	r25, 0x00	; 0
 53a:	01 c0       	rjmp	.+2      	; 0x53e <DIO_vidset_Pin_Direction+0x3c>
 53c:	88 0f       	add	r24, r24
 53e:	6a 95       	dec	r22
 540:	ea f7       	brpl	.-6      	; 0x53c <DIO_vidset_Pin_Direction+0x3a>
 542:	82 2b       	or	r24, r18
 544:	35 c0       	rjmp	.+106    	; 0x5b0 <DIO_vidset_Pin_Direction+0xae>
 546:	24 b3       	in	r18, 0x14	; 20
 548:	81 e0       	ldi	r24, 0x01	; 1
 54a:	90 e0       	ldi	r25, 0x00	; 0
 54c:	01 c0       	rjmp	.+2      	; 0x550 <DIO_vidset_Pin_Direction+0x4e>
 54e:	88 0f       	add	r24, r24
 550:	6a 95       	dec	r22
 552:	ea f7       	brpl	.-6      	; 0x54e <DIO_vidset_Pin_Direction+0x4c>
 554:	82 2b       	or	r24, r18
 556:	37 c0       	rjmp	.+110    	; 0x5c6 <DIO_vidset_Pin_Direction+0xc4>
 558:	21 b3       	in	r18, 0x11	; 17
 55a:	81 e0       	ldi	r24, 0x01	; 1
 55c:	90 e0       	ldi	r25, 0x00	; 0
 55e:	01 c0       	rjmp	.+2      	; 0x562 <DIO_vidset_Pin_Direction+0x60>
 560:	88 0f       	add	r24, r24
 562:	6a 95       	dec	r22
 564:	ea f7       	brpl	.-6      	; 0x560 <DIO_vidset_Pin_Direction+0x5e>
 566:	82 2b       	or	r24, r18
 568:	39 c0       	rjmp	.+114    	; 0x5dc <DIO_vidset_Pin_Direction+0xda>
 56a:	41 11       	cpse	r20, r1
 56c:	38 c0       	rjmp	.+112    	; 0x5de <DIO_vidset_Pin_Direction+0xdc>
 56e:	68 30       	cpi	r22, 0x08	; 8
 570:	b0 f5       	brcc	.+108    	; 0x5de <DIO_vidset_Pin_Direction+0xdc>
 572:	82 30       	cpi	r24, 0x02	; 2
 574:	a1 f0       	breq	.+40     	; 0x59e <DIO_vidset_Pin_Direction+0x9c>
 576:	18 f4       	brcc	.+6      	; 0x57e <DIO_vidset_Pin_Direction+0x7c>
 578:	81 30       	cpi	r24, 0x01	; 1
 57a:	31 f0       	breq	.+12     	; 0x588 <DIO_vidset_Pin_Direction+0x86>
 57c:	08 95       	ret
 57e:	83 30       	cpi	r24, 0x03	; 3
 580:	c9 f0       	breq	.+50     	; 0x5b4 <DIO_vidset_Pin_Direction+0xb2>
 582:	84 30       	cpi	r24, 0x04	; 4
 584:	11 f1       	breq	.+68     	; 0x5ca <DIO_vidset_Pin_Direction+0xc8>
 586:	08 95       	ret
 588:	2a b3       	in	r18, 0x1a	; 26
 58a:	81 e0       	ldi	r24, 0x01	; 1
 58c:	90 e0       	ldi	r25, 0x00	; 0
 58e:	01 c0       	rjmp	.+2      	; 0x592 <DIO_vidset_Pin_Direction+0x90>
 590:	88 0f       	add	r24, r24
 592:	6a 95       	dec	r22
 594:	ea f7       	brpl	.-6      	; 0x590 <DIO_vidset_Pin_Direction+0x8e>
 596:	80 95       	com	r24
 598:	82 23       	and	r24, r18
 59a:	8a bb       	out	0x1a, r24	; 26
 59c:	08 95       	ret
 59e:	27 b3       	in	r18, 0x17	; 23
 5a0:	81 e0       	ldi	r24, 0x01	; 1
 5a2:	90 e0       	ldi	r25, 0x00	; 0
 5a4:	01 c0       	rjmp	.+2      	; 0x5a8 <DIO_vidset_Pin_Direction+0xa6>
 5a6:	88 0f       	add	r24, r24
 5a8:	6a 95       	dec	r22
 5aa:	ea f7       	brpl	.-6      	; 0x5a6 <DIO_vidset_Pin_Direction+0xa4>
 5ac:	80 95       	com	r24
 5ae:	82 23       	and	r24, r18
 5b0:	87 bb       	out	0x17, r24	; 23
 5b2:	08 95       	ret
 5b4:	24 b3       	in	r18, 0x14	; 20
 5b6:	81 e0       	ldi	r24, 0x01	; 1
 5b8:	90 e0       	ldi	r25, 0x00	; 0
 5ba:	01 c0       	rjmp	.+2      	; 0x5be <DIO_vidset_Pin_Direction+0xbc>
 5bc:	88 0f       	add	r24, r24
 5be:	6a 95       	dec	r22
 5c0:	ea f7       	brpl	.-6      	; 0x5bc <DIO_vidset_Pin_Direction+0xba>
 5c2:	80 95       	com	r24
 5c4:	82 23       	and	r24, r18
 5c6:	84 bb       	out	0x14, r24	; 20
 5c8:	08 95       	ret
 5ca:	21 b3       	in	r18, 0x11	; 17
 5cc:	81 e0       	ldi	r24, 0x01	; 1
 5ce:	90 e0       	ldi	r25, 0x00	; 0
 5d0:	01 c0       	rjmp	.+2      	; 0x5d4 <DIO_vidset_Pin_Direction+0xd2>
 5d2:	88 0f       	add	r24, r24
 5d4:	6a 95       	dec	r22
 5d6:	ea f7       	brpl	.-6      	; 0x5d2 <DIO_vidset_Pin_Direction+0xd0>
 5d8:	80 95       	com	r24
 5da:	82 23       	and	r24, r18
 5dc:	81 bb       	out	0x11, r24	; 17
 5de:	08 95       	ret

000005e0 <DIO_vidset_Pin_Value>:
 5e0:	44 23       	and	r20, r20
 5e2:	e9 f1       	breq	.+122    	; 0x65e <DIO_vidset_Pin_Value+0x7e>
 5e4:	68 30       	cpi	r22, 0x08	; 8
 5e6:	08 f0       	brcs	.+2      	; 0x5ea <DIO_vidset_Pin_Value+0xa>
 5e8:	69 c0       	rjmp	.+210    	; 0x6bc <DIO_vidset_Pin_Value+0xdc>
 5ea:	82 30       	cpi	r24, 0x02	; 2
 5ec:	91 f0       	breq	.+36     	; 0x612 <DIO_vidset_Pin_Value+0x32>
 5ee:	18 f4       	brcc	.+6      	; 0x5f6 <DIO_vidset_Pin_Value+0x16>
 5f0:	81 30       	cpi	r24, 0x01	; 1
 5f2:	31 f0       	breq	.+12     	; 0x600 <DIO_vidset_Pin_Value+0x20>
 5f4:	08 95       	ret
 5f6:	83 30       	cpi	r24, 0x03	; 3
 5f8:	a9 f0       	breq	.+42     	; 0x624 <DIO_vidset_Pin_Value+0x44>
 5fa:	84 30       	cpi	r24, 0x04	; 4
 5fc:	e1 f0       	breq	.+56     	; 0x636 <DIO_vidset_Pin_Value+0x56>
 5fe:	08 95       	ret
 600:	2b b3       	in	r18, 0x1b	; 27
 602:	81 e0       	ldi	r24, 0x01	; 1
 604:	90 e0       	ldi	r25, 0x00	; 0
 606:	01 c0       	rjmp	.+2      	; 0x60a <DIO_vidset_Pin_Value+0x2a>
 608:	88 0f       	add	r24, r24
 60a:	6a 95       	dec	r22
 60c:	ea f7       	brpl	.-6      	; 0x608 <DIO_vidset_Pin_Value+0x28>
 60e:	82 2b       	or	r24, r18
 610:	24 c0       	rjmp	.+72     	; 0x65a <DIO_vidset_Pin_Value+0x7a>
 612:	28 b3       	in	r18, 0x18	; 24
 614:	81 e0       	ldi	r24, 0x01	; 1
 616:	90 e0       	ldi	r25, 0x00	; 0
 618:	01 c0       	rjmp	.+2      	; 0x61c <DIO_vidset_Pin_Value+0x3c>
 61a:	88 0f       	add	r24, r24
 61c:	6a 95       	dec	r22
 61e:	ea f7       	brpl	.-6      	; 0x61a <DIO_vidset_Pin_Value+0x3a>
 620:	82 2b       	or	r24, r18
 622:	2a c0       	rjmp	.+84     	; 0x678 <DIO_vidset_Pin_Value+0x98>
 624:	25 b3       	in	r18, 0x15	; 21
 626:	81 e0       	ldi	r24, 0x01	; 1
 628:	90 e0       	ldi	r25, 0x00	; 0
 62a:	01 c0       	rjmp	.+2      	; 0x62e <DIO_vidset_Pin_Value+0x4e>
 62c:	88 0f       	add	r24, r24
 62e:	6a 95       	dec	r22
 630:	ea f7       	brpl	.-6      	; 0x62c <DIO_vidset_Pin_Value+0x4c>
 632:	82 2b       	or	r24, r18
 634:	30 c0       	rjmp	.+96     	; 0x696 <DIO_vidset_Pin_Value+0xb6>
 636:	22 b3       	in	r18, 0x12	; 18
 638:	81 e0       	ldi	r24, 0x01	; 1
 63a:	90 e0       	ldi	r25, 0x00	; 0
 63c:	01 c0       	rjmp	.+2      	; 0x640 <DIO_vidset_Pin_Value+0x60>
 63e:	88 0f       	add	r24, r24
 640:	6a 95       	dec	r22
 642:	ea f7       	brpl	.-6      	; 0x63e <DIO_vidset_Pin_Value+0x5e>
 644:	82 2b       	or	r24, r18
 646:	32 c0       	rjmp	.+100    	; 0x6ac <DIO_vidset_Pin_Value+0xcc>
 648:	2b b3       	in	r18, 0x1b	; 27
 64a:	81 e0       	ldi	r24, 0x01	; 1
 64c:	90 e0       	ldi	r25, 0x00	; 0
 64e:	01 c0       	rjmp	.+2      	; 0x652 <DIO_vidset_Pin_Value+0x72>
 650:	88 0f       	add	r24, r24
 652:	6a 95       	dec	r22
 654:	ea f7       	brpl	.-6      	; 0x650 <DIO_vidset_Pin_Value+0x70>
 656:	80 95       	com	r24
 658:	82 23       	and	r24, r18
 65a:	8b bb       	out	0x1b, r24	; 27
 65c:	08 95       	ret
 65e:	68 30       	cpi	r22, 0x08	; 8
 660:	68 f5       	brcc	.+90     	; 0x6bc <DIO_vidset_Pin_Value+0xdc>
 662:	82 30       	cpi	r24, 0x02	; 2
 664:	59 f4       	brne	.+22     	; 0x67c <DIO_vidset_Pin_Value+0x9c>
 666:	28 b3       	in	r18, 0x18	; 24
 668:	81 e0       	ldi	r24, 0x01	; 1
 66a:	90 e0       	ldi	r25, 0x00	; 0
 66c:	01 c0       	rjmp	.+2      	; 0x670 <DIO_vidset_Pin_Value+0x90>
 66e:	88 0f       	add	r24, r24
 670:	6a 95       	dec	r22
 672:	ea f7       	brpl	.-6      	; 0x66e <DIO_vidset_Pin_Value+0x8e>
 674:	80 95       	com	r24
 676:	82 23       	and	r24, r18
 678:	88 bb       	out	0x18, r24	; 24
 67a:	08 95       	ret
 67c:	83 30       	cpi	r24, 0x03	; 3
 67e:	c0 f0       	brcs	.+48     	; 0x6b0 <DIO_vidset_Pin_Value+0xd0>
 680:	83 30       	cpi	r24, 0x03	; 3
 682:	c9 f4       	brne	.+50     	; 0x6b6 <DIO_vidset_Pin_Value+0xd6>
 684:	25 b3       	in	r18, 0x15	; 21
 686:	81 e0       	ldi	r24, 0x01	; 1
 688:	90 e0       	ldi	r25, 0x00	; 0
 68a:	01 c0       	rjmp	.+2      	; 0x68e <DIO_vidset_Pin_Value+0xae>
 68c:	88 0f       	add	r24, r24
 68e:	6a 95       	dec	r22
 690:	ea f7       	brpl	.-6      	; 0x68c <DIO_vidset_Pin_Value+0xac>
 692:	80 95       	com	r24
 694:	82 23       	and	r24, r18
 696:	85 bb       	out	0x15, r24	; 21
 698:	08 95       	ret
 69a:	22 b3       	in	r18, 0x12	; 18
 69c:	81 e0       	ldi	r24, 0x01	; 1
 69e:	90 e0       	ldi	r25, 0x00	; 0
 6a0:	01 c0       	rjmp	.+2      	; 0x6a4 <DIO_vidset_Pin_Value+0xc4>
 6a2:	88 0f       	add	r24, r24
 6a4:	6a 95       	dec	r22
 6a6:	ea f7       	brpl	.-6      	; 0x6a2 <DIO_vidset_Pin_Value+0xc2>
 6a8:	80 95       	com	r24
 6aa:	82 23       	and	r24, r18
 6ac:	82 bb       	out	0x12, r24	; 18
 6ae:	08 95       	ret
 6b0:	81 30       	cpi	r24, 0x01	; 1
 6b2:	51 f2       	breq	.-108    	; 0x648 <DIO_vidset_Pin_Value+0x68>
 6b4:	08 95       	ret
 6b6:	84 30       	cpi	r24, 0x04	; 4
 6b8:	81 f3       	breq	.-32     	; 0x69a <DIO_vidset_Pin_Value+0xba>
 6ba:	08 95       	ret
 6bc:	08 95       	ret

000006be <DIO_vidGET_Pin_Value>:
 6be:	fa 01       	movw	r30, r20
 6c0:	68 30       	cpi	r22, 0x08	; 8
 6c2:	d0 f4       	brcc	.+52     	; 0x6f8 <DIO_vidGET_Pin_Value+0x3a>
 6c4:	82 30       	cpi	r24, 0x02	; 2
 6c6:	59 f0       	breq	.+22     	; 0x6de <DIO_vidGET_Pin_Value+0x20>
 6c8:	18 f4       	brcc	.+6      	; 0x6d0 <DIO_vidGET_Pin_Value+0x12>
 6ca:	81 30       	cpi	r24, 0x01	; 1
 6cc:	31 f0       	breq	.+12     	; 0x6da <DIO_vidGET_Pin_Value+0x1c>
 6ce:	08 95       	ret
 6d0:	83 30       	cpi	r24, 0x03	; 3
 6d2:	39 f0       	breq	.+14     	; 0x6e2 <DIO_vidGET_Pin_Value+0x24>
 6d4:	84 30       	cpi	r24, 0x04	; 4
 6d6:	39 f0       	breq	.+14     	; 0x6e6 <DIO_vidGET_Pin_Value+0x28>
 6d8:	08 95       	ret
 6da:	89 b3       	in	r24, 0x19	; 25
 6dc:	05 c0       	rjmp	.+10     	; 0x6e8 <DIO_vidGET_Pin_Value+0x2a>
 6de:	86 b3       	in	r24, 0x16	; 22
 6e0:	03 c0       	rjmp	.+6      	; 0x6e8 <DIO_vidGET_Pin_Value+0x2a>
 6e2:	83 b3       	in	r24, 0x13	; 19
 6e4:	01 c0       	rjmp	.+2      	; 0x6e8 <DIO_vidGET_Pin_Value+0x2a>
 6e6:	80 b3       	in	r24, 0x10	; 16
 6e8:	90 e0       	ldi	r25, 0x00	; 0
 6ea:	02 c0       	rjmp	.+4      	; 0x6f0 <DIO_vidGET_Pin_Value+0x32>
 6ec:	95 95       	asr	r25
 6ee:	87 95       	ror	r24
 6f0:	6a 95       	dec	r22
 6f2:	e2 f7       	brpl	.-8      	; 0x6ec <DIO_vidGET_Pin_Value+0x2e>
 6f4:	81 70       	andi	r24, 0x01	; 1
 6f6:	80 83       	st	Z, r24
 6f8:	08 95       	ret

000006fa <_exit>:
 6fa:	f8 94       	cli

000006fc <__stop_program>:
 6fc:	ff cf       	rjmp	.-2      	; 0x6fc <__stop_program>
